BL51 BANKED LINKER/LOCATER V6.22                                                        05/15/2020  17:26:37  PAGE 1


BL51 BANKED LINKER/LOCATER V6.22, INVOKED BY:
D:\KEIL\KEIL C51\C51\BIN\BL51.EXE STARTUP.obj, mian.obj TO test


MEMORY MODEL: SMALL WITH FLOATING POINT ARITHMETIC


INPUT MODULES INCLUDED:
  STARTUP.obj (?C_STARTUP)
  mian.obj (MIAN)
  D:\KEIL\KEIL C51\C51\LIB\C51FPS.LIB (?C?FPADD)
  D:\KEIL\KEIL C51\C51\LIB\C51FPS.LIB (?C?FPMUL)
  D:\KEIL\KEIL C51\C51\LIB\C51FPS.LIB (?C?FPDIV)
  D:\KEIL\KEIL C51\C51\LIB\C51FPS.LIB (?C?FPCMP)
  D:\KEIL\KEIL C51\C51\LIB\C51FPS.LIB (?C?FCAST)
  D:\KEIL\KEIL C51\C51\LIB\C51FPS.LIB (?C?CASTF)
  D:\KEIL\KEIL C51\C51\LIB\C51FPS.LIB (?C?FPGETOPN)
  D:\KEIL\KEIL C51\C51\LIB\C51S.LIB (?C_INIT)
  D:\KEIL\KEIL C51\C51\LIB\C51S.LIB (?C?COPY)
  D:\KEIL\KEIL C51\C51\LIB\C51S.LIB (?C?UIDIV)
  D:\KEIL\KEIL C51\C51\LIB\C51S.LIB (?C?SIDIV)
  D:\KEIL\KEIL C51\C51\LIB\C51S.LIB (?C?LNEG)


LINK MAP OF MODULE:  test (?C_STARTUP)


            TYPE    BASE      LENGTH    RELOCATION   SEGMENT NAME
            -----------------------------------------------------

            * * * * * * *   D A T A   M E M O R Y   * * * * * * *
            REG     0000H     0008H     ABSOLUTE     "REG BANK 0"
            DATA    0008H     0045H     UNIT         ?DT?MIAN
            DATA    004DH     0018H     UNIT         _DATA_GROUP_
            DATA    0065H     000EH     UNIT         ?DT?_LCDDISPLAY?MIAN
            IDATA   0073H     0001H     UNIT         ?STACK

            * * * * * * *   C O D E   M E M O R Y   * * * * * * *
            CODE    0000H     0003H     ABSOLUTE     
            CODE    0003H     0008H     UNIT         ?PR?DSCHANGETEMP?MIAN
            CODE    000BH     0003H     ABSOLUTE     
            CODE    000EH     0565H     UNIT         ?C?LIB_CODE
            CODE    0573H     018BH     UNIT         ?PR?PIDDEAL?MIAN
            CODE    06FEH     00B4H     UNIT         ?PR?_LCDDISPLAY?MIAN
            CODE    07B2H     00ACH     UNIT         ?PR?KEYSCAN?MIAN
            CODE    085EH     00A2H     UNIT         ?PR?DISPLAY_CONTENT?MIAN
            CODE    0900H     008CH     UNIT         ?C_C51STARTUP
            CODE    098CH     0087H     UNIT         ?PR?_LCDWRITEDATA?MIAN
            CODE    0A13H     0069H     UNIT         ?PR?DEC?MIAN
            CODE    0A7CH     0059H     UNIT         ?PR?INC?MIAN
            CODE    0AD5H     0058H     UNIT         ?PR?PWM?MIAN
            CODE    0B2DH     004EH     UNIT         ?PR?ADJUST?MIAN
            CODE    0B7BH     0048H     UNIT         ?PR?_LCDWRITECOM?MIAN
            CODE    0BC3H     0046H     UNIT         ?PR?T0?MIAN
            CODE    0C09H     003FH     UNIT         ?PR?PIDINIT?MIAN
            CODE    0C48H     0031H     UNIT         ?PR?GETTEMP?MIAN
            CODE    0C79H     0028H     UNIT         ?PR?MAIN?MIAN
            CODE    0CA1H     0027H     UNIT         ?PR?_DSWRITEBYTE?MIAN
BL51 BANKED LINKER/LOCATER V6.22                                                      05/15/2020  17:26:37  PAGE 2


            CODE    0CC8H     0025H     UNIT         ?PR?DSREADBYTE?MIAN
            CODE    0CEDH     0021H     UNIT         ?PR?READ_ADC0804?MIAN
            CODE    0D0EH     0020H     UNIT         ?PR?STEPPING_MOTOR?MIAN
            CODE    0D2EH     001DH     UNIT         ?PR?_DELAY?MIAN
            CODE    0D4BH     0018H     UNIT         ?PR?LCDINIT?MIAN
            CODE    0D63H     0015H     UNIT         ?PR?DSINIT?MIAN
            CODE    0D78H     0014H     UNIT         ?C_INITSEG
            CODE    0D8CH     0012H     UNIT         ?PR?_SM_DELAY?MIAN
            CODE    0D9EH     000CH     UNIT         ?CO?MIAN
            CODE    0DAAH     0008H     UNIT         ?PR?DSREADTEMP?MIAN



OVERLAY MAP OF MODULE:   test (?C_STARTUP)


SEGMENT                            DATA_GROUP 
  +--> CALLED SEGMENT            START    LENGTH
------------------------------------------------
?C_C51STARTUP                    -----    -----
  +--> ?PR?MAIN?MIAN
  +--> ?C_INITSEG

?PR?MAIN?MIAN                    -----    -----
  +--> ?PR?PIDINIT?MIAN
  +--> ?PR?LCDINIT?MIAN
  +--> ?PR?READ_ADC0804?MIAN
  +--> ?PR?PIDDEAL?MIAN
  +--> ?PR?STEPPING_MOTOR?MIAN
  +--> ?PR?DISPLAY_CONTENT?MIAN

?PR?LCDINIT?MIAN                 -----    -----
  +--> ?PR?_LCDWRITECOM?MIAN

?PR?_LCDWRITECOM?MIAN            -----    -----
  +--> ?PR?_DELAY?MIAN

?PR?READ_ADC0804?MIAN            004DH    0001H

?PR?PIDDEAL?MIAN                 004DH    0018H

?PR?STEPPING_MOTOR?MIAN          -----    -----
  +--> ?PR?_SM_DELAY?MIAN

?PR?DISPLAY_CONTENT?MIAN         -----    -----
  +--> ?PR?_LCDWRITEDATA?MIAN
  +--> ?PR?_LCDWRITECOM?MIAN

?PR?_LCDWRITEDATA?MIAN           -----    -----
  +--> ?PR?_LCDWRITECOM?MIAN
  +--> ?PR?_DELAY?MIAN

*** NEW ROOT ***************************************************

?PR?T0?MIAN                      -----    -----
  +--> ?PR?PWM?MIAN
  +--> ?PR?KEYSCAN?MIAN
BL51 BANKED LINKER/LOCATER V6.22                                                      05/15/2020  17:26:37  PAGE 3



?PR?KEYSCAN?MIAN                 -----    -----
  +--> ?PR?_DELAY?MIAN
  +--> ?PR?_LCDWRITEDATA?MIAN
  +--> ?PR?_LCDWRITECOM?MIAN



SYMBOL TABLE OF MODULE:  test (?C_STARTUP)

  VALUE           TYPE          NAME
  ----------------------------------

  -------         MODULE        ?C_STARTUP
  C:0900H         SEGMENT       ?C_C51STARTUP
  I:0073H         SEGMENT       ?STACK
  C:0000H         PUBLIC        ?C_STARTUP
  D:00E0H         SYMBOL        ACC
  D:00F0H         SYMBOL        B
  D:0083H         SYMBOL        DPH
  D:0082H         SYMBOL        DPL
  N:0000H         SYMBOL        IBPSTACK
  N:0100H         SYMBOL        IBPSTACKTOP
  N:0080H         SYMBOL        IDATALEN
  C:0903H         SYMBOL        IDATALOOP
  N:0000H         SYMBOL        PBPSTACK
  N:0100H         SYMBOL        PBPSTACKTOP
  N:0000H         SYMBOL        PDATALEN
  N:0000H         SYMBOL        PDATASTART
  N:0000H         SYMBOL        PPAGE
  N:0000H         SYMBOL        PPAGEENABLE
  D:00A0H         SYMBOL        PPAGE_SFR
  D:0081H         SYMBOL        SP
  C:0900H         SYMBOL        STARTUP1
  N:0000H         SYMBOL        XBPSTACK
  N:0000H         SYMBOL        XBPSTACKTOP
  N:0000H         SYMBOL        XDATALEN
  N:0000H         SYMBOL        XDATASTART
  C:0000H         LINE#         126
  C:0900H         LINE#         133
  C:0902H         LINE#         134
  C:0903H         LINE#         135
  C:0904H         LINE#         136
  C:0906H         LINE#         185
  C:0909H         LINE#         196
  -------         ENDMOD        ?C_STARTUP

  -------         MODULE        MIAN
  C:0000H         SYMBOL        _ICE_DUMMY_
  D:0080H         PUBLIC        P0
  C:0A0BH         PUBLIC        _lcdwritedata
  D:0090H         PUBLIC        P1
  D:00A0H         PUBLIC        P2
  D:00B0H         PUBLIC        P3
  D:0009H         PUBLIC        SEk
  C:0D0EH         PUBLIC        stepping_motor
  B:00A0H.3       PUBLIC        control
BL51 BANKED LINKER/LOCATER V6.22                                                      05/15/2020  17:26:37  PAGE 4


  B:00A8H.7       PUBLIC        EA
  B:00A0H.7       PUBLIC        lcden
  D:00A8H         PUBLIC        IE
  C:0B2DH         PUBLIC        adjust
  C:0D63H         PUBLIC        dsinit
  C:0D3DH         PUBLIC        _delay
  C:0C09H         PUBLIC        PIDinit
  D:00B8H         PUBLIC        IP
  B:00A0H.6       PUBLIC        lcdrs
  B:0090H.0       PUBLIC        k0
  D:000DH         PUBLIC        flag
  B:0090H.1       PUBLIC        k1
  D:000EH         PUBLIC        summer
  B:0090H.2       PUBLIC        k2
  B:0090H.3       PUBLIC        k3
  B:00A0H.5       PUBLIC        lcdrw
  C:0BC3H         PUBLIC        t0
  C:0BBBH         PUBLIC        _lcdwritecom
  D:0010H         PUBLIC        u0
  C:0C79H         PUBLIC        main
  C:0A13H         PUBLIC        dec
  C:0CC8H         PUBLIC        dsreadbyte
  D:0014H         PUBLIC        hshi
  C:06FEH         PUBLIC        _lcddisplay
  C:0DAAH         PUBLIC        dsreadtemp
  D:0015H         PUBLIC        Ek
  B:00B0H.7       PUBLIC        dsio
  D:0019H         PUBLIC        lshi
  D:001AH         PUBLIC        lcd
  D:0098H         PUBLIC        SCON
  D:0025H         PUBLIC        hge
  D:0089H         PUBLIC        TMOD
  D:0088H         PUBLIC        TCON
  D:0026H         PUBLIC        temp
  D:0028H         PUBLIC        Td
  D:002CH         PUBLIC        lge
  C:0A7CH         PUBLIC        inc
  D:002DH         PUBLIC        Kp
  D:0031H         PUBLIC        Ti
  C:0CADH         PUBLIC        _dswritebyte
  D:0035H         PUBLIC        Ek_1
  C:0D9EH         SYMBOL        _?ix1000
  B:00A0H.4       PUBLIC        D
  D:0039H         PUBLIC        Pt
  B:00A8H.1       PUBLIC        ET0
  D:008CH         PUBLIC        TH0
  D:008AH         PUBLIC        TL0
  D:003DH         PUBLIC        num
  D:003EH         PUBLIC        R
  C:0D8CH         PUBLIC        _sm_delay
  D:0042H         PUBLIC        T
  C:0AD5H         PUBLIC        pwm
  B:0090H.5       PUBLIC        cs
  B:0090H.6       PUBLIC        rd
  B:0088H.4       PUBLIC        TR0
  C:085EH         PUBLIC        display_content
  D:00C8H         PUBLIC        T2CON
BL51 BANKED LINKER/LOCATER V6.22                                                      05/15/2020  17:26:37  PAGE 5


  B:0090H.7       PUBLIC        wr
  C:0D4BH         PUBLIC        lcdinit
  D:0046H         PUBLIC        A1
  C:07B2H         PUBLIC        keyscan
  D:0047H         PUBLIC        A2
  D:0048H         PUBLIC        A3
  D:0049H         PUBLIC        u
  C:0CEDH         PUBLIC        read_adc0804
  C:0573H         PUBLIC        PIDdeal
  C:0C48H         PUBLIC        gettemp
  D:00D0H         PUBLIC        PSW
  C:0003H         PUBLIC        dschangetemp
  -------         PROC          L?0123
  -------         ENDPROC       L?0123
  -------         PROC          _DELAY
  D:0006H         SYMBOL        z
  -------         DO            
  D:0007H         SYMBOL        x
  D:0006H         SYMBOL        y
  -------         ENDDO         
  C:0D3DH         LINE#         47
  C:0D3DH         LINE#         48
  C:0D3DH         LINE#         50
  C:0D43H         LINE#         51
  C:0D4AH         LINE#         52
  -------         ENDPROC       _DELAY
  -------         PROC          _SM_DELAY
  D:0006H         SYMBOL        z
  -------         DO            
  D:0007H         SYMBOL        x
  D:0006H         SYMBOL        y
  D:0005H         SYMBOL        t
  -------         ENDDO         
  C:0D8CH         LINE#         53
  C:0D8CH         LINE#         54
  C:0D8CH         LINE#         56
  C:0D92H         LINE#         57
  C:0D94H         LINE#         58
  C:0D9DH         LINE#         59
  -------         ENDPROC       _SM_DELAY
  -------         PROC          DSINIT
  -------         DO            
  D:0007H         SYMBOL        i
  -------         ENDDO         
  C:0D63H         LINE#         61
  C:0D63H         LINE#         62
  C:0D63H         LINE#         64
  C:0D65H         LINE#         65
  C:0D67H         LINE#         66
  C:0D6DH         LINE#         67
  C:0D6FH         LINE#         68
  C:0D71H         LINE#         69
  C:0D77H         LINE#         70
  -------         ENDPROC       DSINIT
  -------         PROC          L?0124
  -------         ENDPROC       L?0124
  -------         PROC          _DSWRITEBYTE
BL51 BANKED LINKER/LOCATER V6.22                                                      05/15/2020  17:26:37  PAGE 6


  D:0007H         SYMBOL        dat
  -------         DO            
  D:0006H         SYMBOL        i
  D:0005H         SYMBOL        j
  -------         ENDDO         
  C:0CADH         LINE#         71
  C:0CADH         LINE#         72
  C:0CADH         LINE#         74
  C:0CAFH         LINE#         75
  C:0CAFH         LINE#         76
  C:0CB1H         LINE#         77
  C:0CB1H         LINE#         78
  C:0CB5H         LINE#         79
  C:0CB7H         LINE#         80
  C:0CBDH         LINE#         81
  C:0CBFH         LINE#         82
  C:0CC3H         LINE#         83
  C:0CC7H         LINE#         84
  -------         ENDPROC       _DSWRITEBYTE
  -------         PROC          DSREADBYTE
  -------         DO            
  D:0007H         SYMBOL        i
  D:0005H         SYMBOL        j
  D:0006H         SYMBOL        byte
  D:0004H         SYMBOL        b
  -------         ENDDO         
  C:0CC8H         LINE#         85
  C:0CC8H         LINE#         86
  C:0CC8H         LINE#         88
  C:0CCAH         LINE#         89
  C:0CCAH         LINE#         90
  C:0CCCH         LINE#         91
  C:0CCCH         LINE#         92
  C:0CCEH         LINE#         93
  C:0CCEH         LINE#         94
  C:0CD2H         LINE#         95
  C:0CDEH         LINE#         96
  C:0CE0H         LINE#         97
  C:0CE6H         LINE#         98
  C:0CEAH         LINE#         99
  C:0CECH         LINE#         100
  -------         ENDPROC       DSREADBYTE
  -------         PROC          DSCHANGETEMP
  C:0003H         LINE#         101
  C:0003H         LINE#         102
  C:0003H         LINE#         103
  C:0003H         LINE#         104
  C:0003H         LINE#         105
  C:0006H         LINE#         106
  -------         ENDPROC       DSCHANGETEMP
  -------         PROC          DSREADTEMP
  C:0DAAH         LINE#         109
  C:0DAAH         LINE#         110
  C:0DAAH         LINE#         111
  C:0DAAH         LINE#         112
  C:0DAAH         LINE#         113
  C:0DADH         LINE#         114
BL51 BANKED LINKER/LOCATER V6.22                                                      05/15/2020  17:26:37  PAGE 7


  -------         ENDPROC       DSREADTEMP
  -------         PROC          GETTEMP
  -------         DO            
  D:0006H         SYMBOL        temp
  D:0007H         SYMBOL        h
  D:0003H         SYMBOL        l
  -------         ENDDO         
  C:0C48H         LINE#         116
  C:0C48H         LINE#         117
  C:0C48H         LINE#         120
  C:0C4BH         LINE#         121
  C:0C4EH         LINE#         122
  C:0C53H         LINE#         123
  C:0C56H         LINE#         124
  C:0C56H         LINE#         125
  C:0C58H         LINE#         126
  C:0C5AH         LINE#         127
  C:0C78H         LINE#         128
  C:0C78H         LINE#         129
  -------         ENDPROC       GETTEMP
  -------         PROC          L?0122
  -------         ENDPROC       L?0122
  -------         PROC          _LCDWRITECOM
  D:0007H         SYMBOL        com
  C:0BBBH         LINE#         131
  C:0BBBH         LINE#         132
  C:0BBBH         LINE#         133
  C:0BBDH         LINE#         134
  C:0BBDH         LINE#         135
  C:0BBDH         LINE#         136
  C:0BBDH         LINE#         137
  C:0BC0H         LINE#         138
  C:0BC2H         LINE#         139
  -------         ENDPROC       _LCDWRITECOM
  C:09EDH         SYMBOL        L?0121
  -------         PROC          L?0120
  -------         ENDPROC       L?0120
  C:09EDH         SYMBOL        L?0121
  -------         PROC          _LCDWRITEDATA
  D:0007H         SYMBOL        date
  C:0A0BH         LINE#         140
  C:0A0BH         LINE#         141
  C:0A0BH         LINE#         142
  C:0A0DH         LINE#         143
  C:0A0DH         LINE#         144
  C:0A0DH         LINE#         145
  C:0A0DH         LINE#         146
  C:0A10H         LINE#         147
  C:0A12H         LINE#         148
  -------         ENDPROC       _LCDWRITEDATA
  -------         PROC          LCDINIT
  C:0D4BH         LINE#         149
  C:0D4BH         LINE#         150
  C:0D4BH         LINE#         151
  C:0D4DH         LINE#         152
  C:0D4FH         LINE#         153
  C:0D54H         LINE#         154
BL51 BANKED LINKER/LOCATER V6.22                                                      05/15/2020  17:26:37  PAGE 8


  C:0D59H         LINE#         155
  C:0D5EH         LINE#         156
  -------         ENDPROC       LCDINIT
  -------         PROC          _LCDDISPLAY
  D:0065H         SYMBOL        temp
  -------         DO            
  D:0067H         SYMBOL        tab
  -------         ENDDO         
  C:06FEH         LINE#         159
  C:0702H         LINE#         160
  C:0702H         LINE#         161
  C:0715H         LINE#         162
  C:071AH         LINE#         163
  C:071FH         LINE#         164
  C:072EH         LINE#         165
  C:074AH         LINE#         166
  C:0766H         LINE#         167
  C:0782H         LINE#         168
  C:0791H         LINE#         169
  C:0796H         LINE#         170
  C:0799H         LINE#         171
  C:0799H         LINE#         172
  C:07A8H         LINE#         173
  C:07B1H         LINE#         174
  -------         ENDPROC       _LCDDISPLAY
  -------         PROC          ADJUST
  C:0B2DH         LINE#         176
  C:0B2DH         LINE#         177
  C:0B2DH         LINE#         178
  C:0B34H         LINE#         179
  C:0B36H         LINE#         180
  C:0B3EH         LINE#         181
  C:0B43H         LINE#         182
  C:0B43H         LINE#         183
  C:0B48H         LINE#         184
  C:0B4DH         LINE#         185
  C:0B4DH         LINE#         186
  C:0B52H         LINE#         187
  C:0B52H         LINE#         188
  C:0B57H         LINE#         189
  C:0B5CH         LINE#         190
  C:0B5CH         LINE#         191
  C:0B61H         LINE#         192
  C:0B61H         LINE#         193
  C:0B66H         LINE#         194
  C:0B6BH         LINE#         195
  C:0B6BH         LINE#         196
  C:0B70H         LINE#         197
  C:0B70H         LINE#         198
  C:0B75H         LINE#         199
  C:0B7AH         LINE#         200
  C:0B7AH         LINE#         201
  -------         ENDPROC       ADJUST
  -------         PROC          INC
  C:0A7CH         LINE#         202
  C:0A7CH         LINE#         203
  C:0A7CH         LINE#         204
BL51 BANKED LINKER/LOCATER V6.22                                                      05/15/2020  17:26:37  PAGE 9


  C:0A83H         LINE#         205
  C:0A93H         LINE#         206
  C:0A93H         LINE#         207
  C:0A9DH         LINE#         208
  C:0A9FH         LINE#         209
  C:0A9FH         LINE#         210
  C:0AA1H         LINE#         211
  C:0AABH         LINE#         212
  C:0AADH         LINE#         213
  C:0AADH         LINE#         214
  C:0AAFH         LINE#         215
  C:0AB9H         LINE#         216
  C:0ABBH         LINE#         217
  C:0ABBH         LINE#         218
  C:0ABDH         LINE#         219
  C:0AC7H         LINE#         220
  C:0ACFH         LINE#         221
  C:0AD4H         LINE#         222
  C:0AD4H         LINE#         223
  C:0AD4H         LINE#         224
  -------         ENDPROC       INC
  -------         PROC          DEC
  C:0A13H         LINE#         225
  C:0A13H         LINE#         226
  C:0A13H         LINE#         227
  C:0A1AH         LINE#         228
  C:0A2AH         LINE#         229
  C:0A2AH         LINE#         230
  C:0A38H         LINE#         231
  C:0A3AH         LINE#         232
  C:0A3AH         LINE#         233
  C:0A3CH         LINE#         234
  C:0A4AH         LINE#         235
  C:0A4CH         LINE#         236
  C:0A4CH         LINE#         237
  C:0A4EH         LINE#         238
  C:0A5CH         LINE#         239
  C:0A5EH         LINE#         240
  C:0A5EH         LINE#         241
  C:0A60H         LINE#         242
  C:0A6EH         LINE#         243
  C:0A76H         LINE#         244
  C:0A7BH         LINE#         245
  C:0A7BH         LINE#         246
  C:0A7BH         LINE#         247
  -------         ENDPROC       DEC
  -------         PROC          PIDINIT
  C:0C09H         LINE#         251
  C:0C09H         LINE#         252
  C:0C09H         LINE#         254
  C:0C14H         LINE#         255
  C:0C1FH         LINE#         256
  C:0C29H         LINE#         257
  C:0C33H         LINE#         258
  C:0C3DH         LINE#         259
  C:0C47H         LINE#         261
  -------         ENDPROC       PIDINIT
BL51 BANKED LINKER/LOCATER V6.22                                                      05/15/2020  17:26:37  PAGE 10


  -------         PROC          READ_ADC0804
  -------         DO            
  D:004DH         SYMBOL        b
  D:0007H         SYMBOL        a
  -------         ENDDO         
  C:0CEDH         LINE#         264
  C:0CEDH         LINE#         265
  C:0CEDH         LINE#         266
  C:0CF0H         LINE#         268
  C:0CF2H         LINE#         269
  C:0CF4H         LINE#         270
  C:0CF6H         LINE#         271
  C:0CF8H         LINE#         272
  C:0CF9H         LINE#         273
  C:0CFBH         LINE#         275
  C:0CFEH         LINE#         276
  C:0D00H         LINE#         277
  C:0D02H         LINE#         278
  C:0D03H         LINE#         279
  C:0D05H         LINE#         280
  C:0D07H         LINE#         281
  C:0D09H         LINE#         283
  C:0D0DH         LINE#         285
  C:0D0DH         LINE#         286
  -------         ENDPROC       READ_ADC0804
  -------         PROC          PIDDEAL
  -------         DO            
  D:004DH         SYMBOL        Ek
  D:0051H         SYMBOL        Po
  D:0055H         SYMBOL        Io
  D:0059H         SYMBOL        Do
  D:005DH         SYMBOL        Ki
  D:0061H         SYMBOL        Kd
  D:0004H         SYMBOL        EK
  -------         ENDDO         
  C:0573H         LINE#         288
  C:0573H         LINE#         289
  C:0573H         LINE#         297
  C:0596H         LINE#         299
  C:05B1H         LINE#         300
  C:05CCH         LINE#         301
  C:05E7H         LINE#         302
  C:05FAH         LINE#         303
  C:0615H         LINE#         305
  C:0630H         LINE#         306
  C:0643H         LINE#         307
  C:0656H         LINE#         308
  C:0669H         LINE#         310
  C:068FH         LINE#         311
  C:069BH         LINE#         314
  C:06B2H         LINE#         315
  C:06B2H         LINE#         316
  C:06BEH         LINE#         317
  C:06D1H         LINE#         318
  C:06D1H         LINE#         319
  C:06DDH         LINE#         320
  C:06F2H         LINE#         321
BL51 BANKED LINKER/LOCATER V6.22                                                      05/15/2020  17:26:37  PAGE 11


  C:06F2H         LINE#         322
  C:06FDH         LINE#         323
  C:06FDH         LINE#         324
  -------         ENDPROC       PIDDEAL
  -------         PROC          STEPPING_MOTOR
  C:0D0EH         LINE#         326
  C:0D0EH         LINE#         327
  C:0D0EH         LINE#         328
  C:0D20H         LINE#         329
  C:0D22H         LINE#         330
  C:0D24H         LINE#         332
  C:0D2BH         LINE#         333
  C:0D2DH         LINE#         334
  -------         ENDPROC       STEPPING_MOTOR
  -------         PROC          DISPLAY_CONTENT
  C:085EH         LINE#         335
  C:085EH         LINE#         336
  C:085EH         LINE#         337
  C:085EH         LINE#         338
  C:085EH         LINE#         339
  C:085EH         LINE#         340
  C:085EH         LINE#         341
  C:085EH         LINE#         342
  C:085EH         LINE#         343
  C:085EH         LINE#         344
  C:085EH         LINE#         345
  C:085EH         LINE#         346
  C:085EH         LINE#         347
  C:085EH         LINE#         348
  C:0861H         LINE#         350
  C:086EH         LINE#         351
  C:0888H         LINE#         352
  C:0895H         LINE#         353
  C:089AH         LINE#         354
  C:089FH         LINE#         355
  C:08A4H         LINE#         356
  C:08A9H         LINE#         357
  C:08ABH         LINE#         358
  C:08ABH         LINE#         359
  C:08ABH         LINE#         360
  C:08AEH         LINE#         361
  C:08C8H         LINE#         362
  C:08C8H         LINE#         363
  C:08C8H         LINE#         364
  C:08C8H         LINE#         365
  C:08CBH         LINE#         366
  C:08D0H         LINE#         367
  C:08D5H         LINE#         368
  C:08DAH         LINE#         369
  C:08DFH         LINE#         370
  C:08E1H         LINE#         371
  C:08E1H         LINE#         372
  C:08E1H         LINE#         373
  C:08E1H         LINE#         374
  C:08E3H         LINE#         375
  C:08E3H         LINE#         376
  C:08E3H         LINE#         377
BL51 BANKED LINKER/LOCATER V6.22                                                      05/15/2020  17:26:37  PAGE 12


  C:08E3H         LINE#         378
  C:08E3H         LINE#         379
  C:08E6H         LINE#         380
  C:08EBH         LINE#         381
  C:08F0H         LINE#         382
  C:08F5H         LINE#         383
  C:08FAH         LINE#         384
  C:08FCH         LINE#         385
  C:08FCH         LINE#         386
  C:08FCH         LINE#         387
  C:08FFH         LINE#         388
  C:08FFH         LINE#         389
  -------         ENDPROC       DISPLAY_CONTENT
  -------         PROC          PWM
  -------         DO            
  D:0008H         SYMBOL        i
  -------         ENDDO         
  C:0AD5H         LINE#         390
  C:0AD5H         LINE#         391
  C:0AD5H         LINE#         393
  C:0AE7H         LINE#         395
  C:0AE9H         LINE#         397
  C:0AFCH         LINE#         398
  C:0AFCH         LINE#         399
  C:0AFFH         LINE#         400
  C:0AFFH         LINE#         401
  C:0B14H         LINE#         402
  C:0B14H         LINE#         403
  C:0B16H         LINE#         404
  C:0B2AH         LINE#         405
  C:0B2CH         LINE#         406
  C:0B2CH         LINE#         407
  -------         ENDPROC       PWM
  -------         PROC          KEYSCAN
  C:07B2H         LINE#         408
  C:07B2H         LINE#         409
  C:07B2H         LINE#         410
  C:07B8H         LINE#         411
  C:07B8H         LINE#         412
  C:07BFH         LINE#         413
  C:07C5H         LINE#         414
  C:07C5H         LINE#         415
  C:07C8H         LINE#         416
  C:07C8H         LINE#         417
  C:07C8H         LINE#         418
  C:07C8H         LINE#         419
  C:07C8H         LINE#         420
  C:07C8H         LINE#         421
  C:07C8H         LINE#         422
  C:07C8H         LINE#         423
  C:07C8H         LINE#         424
  C:07C8H         LINE#         425
  C:07C8H         LINE#         426
  C:07C8H         LINE#         427
  C:07C8H         LINE#         428
  C:07C8H         LINE#         429
  C:07CBH         LINE#         430
BL51 BANKED LINKER/LOCATER V6.22                                                      05/15/2020  17:26:37  PAGE 13


  C:07D2H         LINE#         431
  C:07D7H         LINE#         432
  C:07DCH         LINE#         433
  C:07E1H         LINE#         434
  C:07E6H         LINE#         435
  C:07EDH         LINE#         436
  C:07F0H         LINE#         437
  C:07F0H         LINE#         438
  C:07F7H         LINE#         439
  C:07FAH         LINE#         440
  C:07FDH         LINE#         441
  C:0817H         LINE#         442
  C:0817H         LINE#         443
  C:081AH         LINE#         444
  C:081AH         LINE#         445
  C:0821H         LINE#         446
  C:0824H         LINE#         447
  C:0827H         LINE#         448
  C:0841H         LINE#         449
  C:0841H         LINE#         450
  C:0844H         LINE#         451
  C:0844H         LINE#         452
  C:084BH         LINE#         453
  C:084EH         LINE#         454
  C:0853H         LINE#         456
  C:0853H         LINE#         457
  C:085AH         LINE#         458
  C:085DH         LINE#         459
  C:085DH         LINE#         460
  C:085DH         LINE#         461
  -------         ENDPROC       KEYSCAN
  -------         PROC          MAIN
  C:0C79H         LINE#         462
  C:0C79H         LINE#         463
  C:0C79H         LINE#         464
  C:0C7CH         LINE#         465
  C:0C7FH         LINE#         466
  C:0C82H         LINE#         467
  C:0C84H         LINE#         468
  C:0C86H         LINE#         469
  C:0C88H         LINE#         470
  C:0C8BH         LINE#         471
  C:0C8EH         LINE#         472
  C:0C8EH         LINE#         473
  C:0C8EH         LINE#         474
  C:0C96H         LINE#         475
  C:0C99H         LINE#         476
  C:0C9CH         LINE#         477
  C:0C9FH         LINE#         478
  -------         ENDPROC       MAIN
  -------         PROC          T0
  C:0BC3H         LINE#         481
  C:0BE0H         LINE#         483
  C:0BE3H         LINE#         484
  C:0BE6H         LINE#         485
  C:0BE9H         LINE#         486
  C:0BECH         LINE#         487
BL51 BANKED LINKER/LOCATER V6.22                                                      05/15/2020  17:26:37  PAGE 14


  C:0BEEH         LINE#         488
  -------         ENDPROC       T0
  -------         ENDMOD        MIAN

  -------         MODULE        ?C?FPADD
  C:0015H         PUBLIC        ?C?FPADD
  C:0011H         PUBLIC        ?C?FPSUB
  -------         ENDMOD        ?C?FPADD

  -------         MODULE        ?C?FPMUL
  C:0106H         PUBLIC        ?C?FPMUL
  -------         ENDMOD        ?C?FPMUL

  -------         MODULE        ?C?FPDIV
  C:020FH         PUBLIC        ?C?FPDIV
  -------         ENDMOD        ?C?FPDIV

  -------         MODULE        ?C?FPCMP
  C:02AEH         PUBLIC        ?C?FPCMP
  C:02ACH         PUBLIC        ?C?FPCMP3
  -------         ENDMOD        ?C?FPCMP

  -------         MODULE        ?C?FCAST
  C:032FH         PUBLIC        ?C?FCASTC
  C:032AH         PUBLIC        ?C?FCASTI
  C:0325H         PUBLIC        ?C?FCASTL
  -------         ENDMOD        ?C?FCAST

  -------         MODULE        ?C?CASTF
  C:0363H         PUBLIC        ?C?CASTF
  -------         ENDMOD        ?C?CASTF

  -------         MODULE        ?C?COPY
  C:04B4H         PUBLIC        ?C?COPY
  -------         ENDMOD        ?C?COPY

  -------         MODULE        ?C?UIDIV
  C:04DAH         PUBLIC        ?C?UIDIV
  -------         ENDMOD        ?C?UIDIV

  -------         MODULE        ?C?SIDIV
  C:052FH         PUBLIC        ?C?SIDIV
  -------         ENDMOD        ?C?SIDIV

  -------         MODULE        ?C?LNEG
  C:0565H         PUBLIC        ?C?LNEG
  -------         ENDMOD        ?C?LNEG

*** WARNING L16: UNCALLED SEGMENT, IGNORED FOR OVERLAY PROCESS
    SEGMENT: ?PR?GETTEMP?MIAN

*** WARNING L16: UNCALLED SEGMENT, IGNORED FOR OVERLAY PROCESS
    SEGMENT: ?PR?_LCDDISPLAY?MIAN

*** WARNING L16: UNCALLED SEGMENT, IGNORED FOR OVERLAY PROCESS
    SEGMENT: ?PR?ADJUST?MIAN

BL51 BANKED LINKER/LOCATER V6.22                                                      05/15/2020  17:26:37  PAGE 15


*** WARNING L16: UNCALLED SEGMENT, IGNORED FOR OVERLAY PROCESS
    SEGMENT: ?PR?INC?MIAN

*** WARNING L16: UNCALLED SEGMENT, IGNORED FOR OVERLAY PROCESS
    SEGMENT: ?PR?DEC?MIAN

Program Size: data=116.0 xdata=0 code=3506
LINK/LOCATE RUN COMPLETE.  5 WARNING(S),  0 ERROR(S)
